target datalayout = "e-m:e-p270:32:32-p271:32:32-p272:64:64-i64:64-i128:128-f80:128-n8:16:32:64-S128"
target triple = "x86_64-pc-linux-gnu"

%struct.evhttp_connection = type { %struct.anon, ptr, %struct.event, ptr, i16, ptr, i16, ptr, i64, i64, i32, %struct.timeval, %struct.timeval, %struct.timeval, i32, i32, %struct.timeval, i32, ptr, %struct.evcon_requestq, ptr, ptr, ptr, ptr, %struct.event_callback, ptr, ptr, i32, ptr }
%struct.anon = type { ptr, ptr }
%struct.event = type { %struct.event_callback, %union.anon.1, i32, i16, i16, ptr, %union.anon.3, %struct.timeval }
%union.anon.1 = type { %struct.anon.2 }
%struct.anon.2 = type { ptr, ptr }
%union.anon.3 = type { %struct.anon.4 }
%struct.anon.4 = type { %struct.anon.5, %struct.timeval }
%struct.anon.5 = type { ptr, ptr }
%struct.timeval = type { i64, i64 }
%struct.evcon_requestq = type { ptr, ptr }
%struct.event_callback = type { %struct.anon.0, i16, i8, i8, %union.anon, ptr }
%struct.anon.0 = type { ptr, ptr }
%union.anon = type { ptr }

; Function Attrs: nounwind uwtable
define internal void @evhttp_set_timeout_(ptr noundef %0, i32 noundef %1, i32 noundef %2) #0 {
  %4 = alloca ptr, align 8
  %5 = alloca i32, align 4
  %6 = alloca i32, align 4
  %7 = alloca %struct.timeval, align 8
  store ptr %0, ptr %4, align 8
  store i32 %1, ptr %5, align 4
  store i32 %2, ptr %6, align 4
  %8 = load i32, ptr %5, align 4
  %9 = icmp eq i32 %8, -1
  br i1 %9, label %10, label %12

10:                                               ; preds = %3
  %11 = load i32, ptr %6, align 4
  store i32 %11, ptr %5, align 4
  br label %12

12:                                               ; preds = %10, %3
  %13 = load i32, ptr %5, align 4
  %14 = icmp eq i32 %13, -1
  br i1 %14, label %15, label %20

15:                                               ; preds = %12
  %16 = load ptr, ptr %4, align 8
  %17 = getelementptr inbounds nuw %struct.timeval, ptr %16, i32 0, i32 1
  store i64 0, ptr %17, align 8
  %18 = load ptr, ptr %4, align 8
  %19 = getelementptr inbounds nuw %struct.timeval, ptr %18, i32 0, i32 0
  store i64 0, ptr %19, align 8
  br label %26

20:                                               ; preds = %12
  call void @llvm.lifetime.start.p0(i64 16, ptr %7) #11
  %21 = load i32, ptr %5, align 4
  %22 = sext i32 %21 to i64
  %23 = getelementptr inbounds nuw %struct.timeval, ptr %7, i32 0, i32 0
  store i64 %22, ptr %23, align 8
  %24 = getelementptr inbounds nuw %struct.timeval, ptr %7, i32 0, i32 1
  store i64 0, ptr %24, align 8
  %25 = load ptr, ptr %4, align 8
  call void @llvm.memcpy.p0.p0.i64(ptr align 8 %25, ptr align 8 %7, i64 16, i1 false)
  call void @llvm.lifetime.end.p0(i64 16, ptr %7) #11
  br label %26

26:                                               ; preds = %20, %15
  ret void
}

; Function Attrs: nounwind uwtable
define void @evhttp_connection_set_timeout(ptr noundef %0, i32 noundef %1) #0 {
  %3 = alloca ptr, align 8
  %4 = alloca i32, align 4
  store ptr %0, ptr %3, align 8
  store i32 %1, ptr %4, align 4
  %5 = load i32, ptr %4, align 4
  %6 = icmp ne i32 %5, -1
  br i1 %6, label %7, label %12

7:                                                ; preds = %2
  %8 = load ptr, ptr %3, align 8
  %9 = getelementptr inbounds nuw %struct.evhttp_connection, ptr %8, i32 0, i32 10
  %10 = load i32, ptr %9, align 8
  %11 = or i32 %10, 4194304
  store i32 %11, ptr %9, align 8
  br label %17

12:                                               ; preds = %2
  %13 = load ptr, ptr %3, align 8
  %14 = getelementptr inbounds nuw %struct.evhttp_connection, ptr %13, i32 0, i32 10
  %15 = load i32, ptr %14, align 8
  %16 = and i32 %15, -4194305
  store i32 %16, ptr %14, align 8
  br label %17

17:                                               ; preds = %12, %7
  %18 = load ptr, ptr %3, align 8
  %19 = getelementptr inbounds nuw %struct.evhttp_connection, ptr %18, i32 0, i32 12
  %20 = load i32, ptr %4, align 4
  call void @evhttp_set_timeout_(ptr noundef %19, i32 noundef %20, i32 noundef 50)
  %21 = load ptr, ptr %3, align 8
  %22 = getelementptr inbounds nuw %struct.evhttp_connection, ptr %21, i32 0, i32 13
  %23 = load i32, ptr %4, align 4
  call void @evhttp_set_timeout_(ptr noundef %22, i32 noundef %23, i32 noundef 50)
  %24 = load ptr, ptr %3, align 8
  %25 = getelementptr inbounds nuw %struct.evhttp_connection, ptr %24, i32 0, i32 1
  %26 = load ptr, ptr %25, align 8
  %27 = load ptr, ptr %3, align 8
  %28 = getelementptr inbounds nuw %struct.evhttp_connection, ptr %27, i32 0, i32 12
  %29 = load ptr, ptr %3, align 8
  %30 = getelementptr inbounds nuw %struct.evhttp_connection, ptr %29, i32 0, i32 13
  %31 = call i32 @bufferevent_set_timeouts(ptr noundef %26, ptr noundef %28, ptr noundef %30)
  ret void
}