; Function Attrs: nounwind uwtable
define void @evhttp_connection_set_timeout(ptr noundef initializes((224, 256)) %0, i32 noundef %1) local_unnamed_addr #0 {
  %.not = icmp eq i32 %1, -1
  %3 = getelementptr inbounds nuw i8, ptr %0, i64 200
  %4 = load i32, ptr %3, align 8
  br i1 %.not, label %.split10, label %.split

.split:                                           ; preds = %2
  %5 = or i32 %4, 4194304
  store i32 %5, ptr %3, align 8
  %spec.select7.i = sext i32 %1 to i64
  br label %7

.split10:                                         ; preds = %2
  %6 = and i32 %4, -4194305
  store i32 %6, ptr %3, align 8
  br label %7

7:                                                ; preds = %.split10, %.split
  %.sink15 = phi i64 [ 50, %.split10 ], [ %spec.select7.i, %.split ]
  %8 = getelementptr inbounds nuw i8, ptr %0, i64 224
  %9 = getelementptr inbounds nuw i8, ptr %0, i64 232
  store i64 0, ptr %9, align 8
  store i64 %.sink15, ptr %8, align 8
  %10 = getelementptr inbounds nuw i8, ptr %0, i64 240
  %11 = getelementptr inbounds nuw i8, ptr %0, i64 248
  store i64 0, ptr %11, align 8
  store i64 %.sink15, ptr %10, align 8
  %12 = getelementptr inbounds nuw i8, ptr %0, i64 16
  %13 = load ptr, ptr %12, align 8
  %14 = tail call i32 @bufferevent_set_timeouts(ptr noundef %13, ptr noundef nonnull %8, ptr noundef nonnull %10) #18
  ret void
}